; Function Attrs: nofree norecurse nosync nounwind memory(none) uwtable
define hidden i64 @maxXOR(i64 noundef %0, i64 noundef %1, i64 noundef %2, i64 noundef %3) local_unnamed_addr #5 {
  %5 = xor i64 %3, -1
  %6 = xor i64 %2, -1
  %7 = and i64 %2, %1
  %8 = xor i64 %1, -1
  %9 = and i64 %6, %8
  br label %10

10:                                               ; preds = %24, %4
  %.030.i = phi i64 [ -9223372036854775808, %4 ], [ %25, %24 ]
  %11 = and i64 %7, %.030.i
  %.not26.i = icmp eq i64 %11, 0
  br i1 %.not26.i, label %17, label %12

12:                                               ; preds = %10
  %13 = xor i64 %.030.i, -1
  %14 = add i64 %.030.i, -1
  %15 = or i64 %14, %13
  %16 = or i64 %15, %1
  %.not29.i = icmp ult i64 %16, %0
  br i1 %.not29.i, label %24, label %maxAND.exit

17:                                               ; preds = %10
  %18 = and i64 %9, %.030.i
  %.not27.i = icmp eq i64 %18, 0
  br i1 %.not27.i, label %24, label %19

19:                                               ; preds = %17
  %20 = add i64 %.030.i, -1
  %21 = and i64 %.030.i, %2
  %22 = xor i64 %21, -1
  %23 = or i64 %20, %22
  %.not28.i = icmp ult i64 %23, %5
  br i1 %.not28.i, label %24, label %maxAND.exit

24:                                               ; preds = %19, %17, %12
  %25 = lshr i64 %.030.i, 1
  %.not.i = icmp ult i64 %.030.i, 2
  br i1 %.not.i, label %maxAND.exit, label %10

maxAND.exit:                                      ; preds = %12, %19, %24
  %.023.i = phi i64 [ %1, %24 ], [ %16, %12 ], [ %1, %19 ]
  %.022.i = phi i64 [ %6, %24 ], [ %6, %12 ], [ %23, %19 ]
  %26 = and i64 %.022.i, %.023.i
  %27 = xor i64 %0, -1
  %28 = and i64 %5, %27
  %29 = and i64 %3, %0
  br label %30

30:                                               ; preds = %44, %maxAND.exit
  %.030.i8 = phi i64 [ -9223372036854775808, %maxAND.exit ], [ %45, %44 ]
  %31 = and i64 %28, %.030.i8
  %.not26.i9 = icmp eq i64 %31, 0
  br i1 %.not26.i9, label %37, label %32

32:                                               ; preds = %30
  %33 = add i64 %.030.i8, -1
  %34 = and i64 %.030.i8, %0
  %35 = xor i64 %34, -1
  %36 = or i64 %33, %35
  %.not29.i10 = icmp ult i64 %36, %8
  br i1 %.not29.i10, label %44, label %maxAND.exit16

37:                                               ; preds = %30
  %38 = and i64 %29, %.030.i8
  %.not27.i14 = icmp eq i64 %38, 0
  br i1 %.not27.i14, label %44, label %39

39:                                               ; preds = %37
  %40 = xor i64 %.030.i8, -1
  %41 = add i64 %.030.i8, -1
  %42 = or i64 %41, %40
  %43 = or i64 %42, %3
  %.not28.i15 = icmp ult i64 %43, %2
  br i1 %.not28.i15, label %44, label %maxAND.exit16

44:                                               ; preds = %39, %37, %32
  %45 = lshr i64 %.030.i8, 1
  %.not.i13 = icmp ult i64 %.030.i8, 2
  br i1 %.not.i13, label %maxAND.exit16, label %30

maxAND.exit16:                                    ; preds = %32, %39, %44
  %.023.i11 = phi i64 [ %27, %44 ], [ %36, %32 ], [ %27, %39 ]
  %.022.i12 = phi i64 [ %3, %44 ], [ %3, %32 ], [ %43, %39 ]
  %46 = and i64 %.022.i12, %.023.i11
  %47 = and i64 %46, %26
  br label %48

48:                                               ; preds = %54, %maxAND.exit16
  %.026.i = phi i64 [ -9223372036854775808, %maxAND.exit16 ], [ %55, %54 ]
  %49 = and i64 %47, %.026.i
  %.not23.i = icmp eq i64 %49, 0
  br i1 %.not23.i, label %54, label %50

50:                                               ; preds = %48
  %51 = sub i64 %26, %.026.i
  %52 = add i64 %.026.i, -1
  %53 = or i64 %51, %52
  br label %maxOR.exit

54:                                               ; preds = %48
  %55 = lshr i64 %.026.i, 1
  %.not.i17 = icmp ult i64 %.026.i, 2
  br i1 %.not.i17, label %maxOR.exit, label %48

maxOR.exit:                                       ; preds = %54, %50
  %.020.i = phi i64 [ %53, %50 ], [ %26, %54 ]
  %56 = or i64 %.020.i, %46
  ret i64 %56
}